; Function Attrs: nounwind uwtable
define ptr @l_Lean_Elab_Tactic_withLocation___lambda__2(ptr noundef %0, i8 noundef zeroext %1, ptr noundef %2, ptr noundef %3, ptr noundef %4, ptr noundef %5, ptr noundef %6, ptr noundef %7, ptr noundef %8, ptr noundef %9, ptr noundef %10, ptr noundef %11, ptr noundef %12) local_unnamed_addr #0 {
  tail call void @lean_inc_heartbeat() #4
  %14 = tail call noalias ptr @mi_malloc_small(i64 noundef 48) #4
  %15 = icmp eq ptr %14, null
  br i1 %15, label %16, label %lean_alloc_closure.exit

16:                                               ; preds = %13
  tail call void @lean_internal_panic_out_of_memory() #5
  unreachable

lean_alloc_closure.exit:                          ; preds = %13
  %17 = zext i8 %1 to i64
  %18 = shl nuw nsw i64 %17, 1
  %19 = or disjoint i64 %18, 1
  %20 = inttoptr i64 %19 to ptr
  %21 = getelementptr inbounds nuw i8, ptr %14, i64 4
  store i32 1, ptr %14, align 4, !tbaa !8
  store i32 -184549328, ptr %21, align 4
  %22 = getelementptr inbounds nuw i8, ptr %14, i64 8
  store ptr @l_Lean_Elab_Tactic_withLocation___lambda__1___boxed, ptr %22, align 8, !tbaa !4
  %23 = getelementptr inbounds nuw i8, ptr %14, i64 16
  store i16 12, ptr %23, align 8, !tbaa !17
  %24 = getelementptr inbounds nuw i8, ptr %14, i64 18
  store i16 3, ptr %24, align 2, !tbaa !17
  %25 = getelementptr inbounds nuw i8, ptr %14, i64 24
  store ptr %0, ptr %25, align 8, !tbaa !4
  %26 = getelementptr inbounds nuw i8, ptr %14, i64 32
  store ptr %20, ptr %26, align 8, !tbaa !4
  %27 = getelementptr inbounds nuw i8, ptr %14, i64 40
  store ptr %2, ptr %27, align 8, !tbaa !4
  %28 = tail call ptr @l_Lean_MVarId_withContext___at_Lean_Elab_Tactic_withMainContext___spec__1___rarg(ptr noundef %3, ptr noundef nonnull %14, ptr noundef %4, ptr noundef %5, ptr noundef %6, ptr noundef %7, ptr noundef %8, ptr noundef %9, ptr noundef %10, ptr noundef %11, ptr noundef %12) #4
  ret ptr %28
}